; Function Attrs: mustprogress uwtable
define void @_ZN7rocksdb13DBWithTTLImpl8AppendTSERKNS_5SliceEPNSt7__cxx1112basic_stringIcSt11char_traitsIcESaIcEEEPNS_11SystemClockE(ptr noalias sret(%"class.rocksdb::Status") align 8 %agg.result, ptr nocapture noundef nonnull readonly align 8 dereferenceable(16) %val, ptr noundef nonnull %val_with_ts, ptr noundef %clock) local_unnamed_addr #2 align 2 personality ptr @__gxx_personality_v0 {
invoke.cont:
  %ts_string = alloca [4 x i8], align 4
  %curtime = alloca i64, align 8
  %size_.i = getelementptr inbounds i8, ptr %val, i64 8
  %0 = load i64, ptr %size_.i, align 8
  %add = add i64 %0, 4
  tail call void @_ZNSt7__cxx1112basic_stringIcSt11char_traitsIcESaIcEE7reserveEm(ptr noundef nonnull align 8 dereferenceable(32) %val_with_ts, i64 noundef %add)
  %vtable = load ptr, ptr %clock, align 8
  %vfn = getelementptr inbounds i8, ptr %vtable, i64 200
  %1 = load ptr, ptr %vfn, align 8
  call void %1(ptr sret(%"class.rocksdb::Status") align 8 %agg.result, ptr noundef nonnull align 8 dereferenceable(32) %clock, ptr noundef nonnull %curtime)
  %2 = load i8, ptr %agg.result, align 8
  %cmp.i = icmp eq i8 %2, 0
  br i1 %cmp.i, label %if.end, label %nrvo.skipdtor

lpad:                                             ; preds = %invoke.cont7, %if.end
  %3 = landingpad { ptr, i32 }
          cleanup
  %state_.i = getelementptr inbounds i8, ptr %agg.result, i64 8
  %4 = load ptr, ptr %state_.i, align 8
  %cmp.not.i.i = icmp eq ptr %4, null
  br i1 %cmp.not.i.i, label %_ZN7rocksdb6StatusD2Ev.exit, label %_ZNKSt14default_deleteIA_KcEclIS0_EENSt9enable_ifIXsr14is_convertibleIPA_T_PS1_EE5valueEvE4typeEPS5_.exit.i.i

_ZNKSt14default_deleteIA_KcEclIS0_EENSt9enable_ifIXsr14is_convertibleIPA_T_PS1_EE5valueEvE4typeEPS5_.exit.i.i: ; preds = %lpad
  call void @_ZdaPv(ptr noundef nonnull %4) #20
  br label %_ZN7rocksdb6StatusD2Ev.exit

_ZN7rocksdb6StatusD2Ev.exit:                      ; preds = %lpad, %_ZNKSt14default_deleteIA_KcEclIS0_EENSt9enable_ifIXsr14is_convertibleIPA_T_PS1_EE5valueEvE4typeEPS5_.exit.i.i
  store ptr null, ptr %state_.i, align 8
  resume { ptr, i32 } %3

if.end:                                           ; preds = %invoke.cont
  %5 = load i64, ptr %curtime, align 8
  %conv = trunc i64 %5 to i32
  store i32 %conv, ptr %ts_string, align 4
  %6 = load ptr, ptr %val, align 8
  %7 = load i64, ptr %size_.i, align 8
  %call8 = invoke noundef nonnull align 8 dereferenceable(32) ptr @_ZNSt7__cxx1112basic_stringIcSt11char_traitsIcESaIcEE6appendEPKcm(ptr noundef nonnull align 8 dereferenceable(32) %val_with_ts, ptr noundef %6, i64 noundef %7)
          to label %invoke.cont7 unwind label %lpad

invoke.cont7:                                     ; preds = %if.end
  %call11 = invoke noundef nonnull align 8 dereferenceable(32) ptr @_ZNSt7__cxx1112basic_stringIcSt11char_traitsIcESaIcEE6appendEPKcm(ptr noundef nonnull align 8 dereferenceable(32) %val_with_ts, ptr noundef nonnull %ts_string, i64 noundef 4)
          to label %nrvo.skipdtor unwind label %lpad

nrvo.skipdtor:                                    ; preds = %invoke.cont, %invoke.cont7
  ret void
}